target datalayout = "e-m:e-p270:32:32-p271:32:32-p272:64:64-i64:64-i128:128-f80:128-n8:16:32:64-S128"
target triple = "x86_64-pc-linux-gnu"

%struct.ident_t = type { i32, i32, i32, i32, ptr }
%"struct.std::_Vector_base.11" = type { %"struct.std::_Vector_base<float, std::allocator<float>>::_Vector_impl" }
%"struct.std::_Vector_base<float, std::allocator<float>>::_Vector_impl" = type { %"struct.std::_Vector_base<float, std::allocator<float>>::_Vector_impl_data" }
%"struct.std::_Vector_base<float, std::allocator<float>>::_Vector_impl_data" = type { ptr, ptr, ptr }
%"struct.faiss::Index" = type <{ ptr, i32, [4 x i8], i64, i8, i8, [2 x i8], i32, float, [4 x i8] }>
%"struct.faiss::Level1Quantizer" = type { ptr, i64, i8, i8, %"struct.faiss::ClusteringParameters", ptr }
%"struct.faiss::ClusteringParameters" = type { i32, i32, i8, i8, i8, i8, i8, i32, i32, i32, i64 }

@1 = private unnamed_addr constant %struct.ident_t { i32 0, i32 514, i32 0, i32 22, ptr @0 }, align 8

; Function Attrs: mustprogress nounwind uwtable
define linkonce_odr noundef ptr @_ZNKSt6vectorIfSaIfEE11_M_data_ptrIfEEPT_S4_(ptr noundef nonnull align 8 dereferenceable(24) %0, ptr noundef %1) #0 comdat align 2 {
  %3 = alloca ptr, align 8
  %4 = alloca ptr, align 8
  store ptr %0, ptr %3, align 8
  store ptr %1, ptr %4, align 8
  %5 = load ptr, ptr %4, align 8
  ret ptr %5
}

; Function Attrs: mustprogress nounwind uwtable
define linkonce_odr noundef ptr @_ZNSt6vectorIfSaIfEE4dataEv(ptr noundef nonnull align 8 dereferenceable(24) %0) #0 comdat align 2 {
  %2 = alloca ptr, align 8
  store ptr %0, ptr %2, align 8
  %3 = load ptr, ptr %2, align 8
  %4 = getelementptr inbounds %"struct.std::_Vector_base.11", ptr %3, i32 0, i32 0
  %5 = getelementptr inbounds %"struct.std::_Vector_base<float, std::allocator<float>>::_Vector_impl_data", ptr %4, i32 0, i32 0
  %6 = load ptr, ptr %5, align 8
  %7 = call noundef ptr @_ZNKSt6vectorIfSaIfEE11_M_data_ptrIfEEPT_S4_(ptr noundef nonnull align 8 dereferenceable(24) %3, ptr noundef %6) #7
  ret ptr %7
}

; Function Attrs: norecurse nounwind uwtable
define internal void @_ZNK5faiss25IndexIVFAdditiveQuantizer14encode_vectorsElPKfPKlPhb.omp_outlined(ptr noalias noundef %0, ptr noalias noundef %1, ptr noundef nonnull align 8 dereferenceable(8) %2, ptr noundef %3, ptr noundef nonnull align 8 dereferenceable(8) %4, ptr noundef nonnull align 8 dereferenceable(24) %5, ptr noundef nonnull align 8 dereferenceable(8) %6) #6 personality ptr @__gxx_personality_v0 {
  %8 = alloca ptr, align 8
  %9 = alloca ptr, align 8
  %10 = alloca ptr, align 8
  %11 = alloca ptr, align 8
  %12 = alloca ptr, align 8
  %13 = alloca ptr, align 8
  %14 = alloca ptr, align 8
  %15 = alloca i64, align 8
  %16 = alloca i64, align 8
  %17 = alloca i64, align 8
  %18 = alloca i64, align 8
  %19 = alloca i64, align 8
  %20 = alloca i64, align 8
  %21 = alloca i64, align 8
  %22 = alloca i32, align 4
  %23 = alloca i64, align 8
  store ptr %0, ptr %8, align 8
  store ptr %1, ptr %9, align 8
  store ptr %2, ptr %10, align 8
  store ptr %3, ptr %11, align 8
  store ptr %4, ptr %12, align 8
  store ptr %5, ptr %13, align 8
  store ptr %6, ptr %14, align 8
  %24 = load ptr, ptr %10, align 8
  %25 = load ptr, ptr %11, align 8
  %26 = load ptr, ptr %12, align 8
  %27 = load ptr, ptr %13, align 8
  %28 = load ptr, ptr %14, align 8
  %29 = load i64, ptr %24, align 8
  store i64 %29, ptr %16, align 8
  %30 = load i64, ptr %16, align 8
  %31 = sub nsw i64 %30, 0
  %32 = sdiv i64 %31, 1
  %33 = sub nsw i64 %32, 1
  store i64 %33, ptr %17, align 8
  store i64 0, ptr %18, align 8
  %34 = load i64, ptr %16, align 8
  %35 = icmp slt i64 0, %34
  br i1 %35, label %36, label %100

36:                                               ; preds = %7
  store i64 0, ptr %19, align 8
  %37 = load i64, ptr %17, align 8
  store i64 %37, ptr %20, align 8
  store i64 1, ptr %21, align 8
  store i32 0, ptr %22, align 4
  %38 = load ptr, ptr %8, align 8
  %39 = load i32, ptr %38, align 4
  call void @__kmpc_for_static_init_8(ptr @1, i32 %39, i32 34, ptr %22, ptr %19, ptr %20, ptr %21, i64 1, i64 1)
  %40 = load i64, ptr %20, align 8
  %41 = load i64, ptr %17, align 8
  %42 = icmp sgt i64 %40, %41
  br i1 %42, label %43, label %45

43:                                               ; preds = %36
  %44 = load i64, ptr %17, align 8
  br label %47

45:                                               ; preds = %36
  %46 = load i64, ptr %20, align 8
  br label %47

47:                                               ; preds = %45, %43
  %48 = phi i64 [ %44, %43 ], [ %46, %45 ]
  store i64 %48, ptr %20, align 8
  %49 = load i64, ptr %19, align 8
  store i64 %49, ptr %15, align 8
  br label %50

50:                                               ; preds = %93, %47
  %51 = load i64, ptr %15, align 8
  %52 = load i64, ptr %20, align 8
  %53 = icmp sle i64 %51, %52
  br i1 %53, label %54, label %96

54:                                               ; preds = %50
  %55 = load i64, ptr %15, align 8
  %56 = mul nsw i64 %55, 1
  %57 = add nsw i64 0, %56
  store i64 %57, ptr %23, align 8
  %58 = getelementptr inbounds i8, ptr %25, i64 48
  %59 = getelementptr inbounds %"struct.faiss::Level1Quantizer", ptr %58, i32 0, i32 0
  %60 = load ptr, ptr %59, align 8
  %61 = load ptr, ptr %26, align 8
  %62 = load i64, ptr %23, align 8
  %63 = getelementptr inbounds %"struct.faiss::Index", ptr %25, i32 0, i32 1
  %64 = load i32, ptr %63, align 8
  %65 = sext i32 %64 to i64
  %66 = mul nsw i64 %62, %65
  %67 = getelementptr inbounds float, ptr %61, i64 %66
  %68 = call noundef ptr @_ZNSt6vectorIfSaIfEE4dataEv(ptr noundef nonnull align 8 dereferenceable(24) %27) #7
  %69 = load i64, ptr %23, align 8
  %70 = getelementptr inbounds %"struct.faiss::Index", ptr %25, i32 0, i32 1
  %71 = load i32, ptr %70, align 8
  %72 = sext i32 %71 to i64
  %73 = mul nsw i64 %69, %72
  %74 = getelementptr inbounds float, ptr %68, i64 %73
  %75 = load ptr, ptr %28, align 8
  %76 = load i64, ptr %23, align 8
  %77 = getelementptr inbounds i64, ptr %75, i64 %76
  %78 = load i64, ptr %77, align 8
  %79 = icmp sge i64 %78, 0
  br i1 %79, label %80, label %85

80:                                               ; preds = %54
  %81 = load ptr, ptr %28, align 8
  %82 = load i64, ptr %23, align 8
  %83 = getelementptr inbounds i64, ptr %81, i64 %82
  %84 = load i64, ptr %83, align 8
  br label %86

85:                                               ; preds = %54
  br label %86

86:                                               ; preds = %85, %80
  %87 = phi i64 [ %84, %80 ], [ 0, %85 ]
  %88 = load ptr, ptr %60, align 8
  %89 = getelementptr inbounds ptr, ptr %88, i64 14
  %90 = load ptr, ptr %89, align 8
  invoke void %90(ptr noundef nonnull align 8 dereferenceable(36) %60, ptr noundef %67, ptr noundef %74, i64 noundef %87)
          to label %91 unwind label %101

91:                                               ; preds = %86
  br label %92

92:                                               ; preds = %91
  br label %93

93:                                               ; preds = %92
  %94 = load i64, ptr %15, align 8
  %95 = add nsw i64 %94, 1
  store i64 %95, ptr %15, align 8
  br label %50

96:                                               ; preds = %50
  br label %97

97:                                               ; preds = %96
  %98 = load ptr, ptr %8, align 8
  %99 = load i32, ptr %98, align 4
  call void @__kmpc_for_static_fini(ptr @1, i32 %99)
  br label %100

100:                                              ; preds = %97, %7
  ret void

101:                                              ; preds = %86
  %102 = landingpad { ptr, i32 }
          catch ptr null
  %103 = extractvalue { ptr, i32 } %102, 0
  call void @__clang_call_terminate(ptr %103) #19
  unreachable
}