; Function Attrs: norecurse nounwind uwtable
define internal void @_ZNK5faiss25IndexIVFAdditiveQuantizer14encode_vectorsElPKfPKlPhb.omp_outlined(ptr noalias nocapture noundef readonly %0, ptr noalias nocapture readnone %1, ptr nocapture noundef nonnull readonly align 8 dereferenceable(8) %2, ptr nocapture noundef readonly %3, ptr nocapture noundef nonnull readonly align 8 dereferenceable(8) %4, ptr nocapture noundef nonnull readonly align 8 dereferenceable(24) %5, ptr nocapture noundef nonnull readonly align 8 dereferenceable(8) %6) #8 personality ptr @__gxx_personality_v0 {
  %8 = alloca i64, align 8
  %9 = alloca i64, align 8
  %10 = alloca i64, align 8
  %11 = alloca i32, align 4
  %12 = load i64, ptr %2, align 8
  %13 = icmp sgt i64 %12, 0
  br i1 %13, label %14, label %40

14:                                               ; preds = %7
  %15 = add nsw i64 %12, -1
  store i64 0, ptr %8, align 8
  store i64 %15, ptr %9, align 8
  store i64 1, ptr %10, align 8
  store i32 0, ptr %11, align 4
  %16 = load i32, ptr %0, align 4
  call void @__kmpc_for_static_init_8(ptr nonnull @1, i32 %16, i32 34, ptr nonnull %11, ptr nonnull %8, ptr nonnull %9, ptr nonnull %10, i64 1, i64 1)
  %17 = load i64, ptr %9, align 8
  %18 = call i64 @llvm.smin.i64(i64 %17, i64 %15)
  store i64 %18, ptr %9, align 8
  %19 = load i64, ptr %8, align 8
  %.not19 = icmp sgt i64 %19, %18
  br i1 %.not19, label %._crit_edge, label %.lr.ph

.lr.ph:                                           ; preds = %14
  %20 = getelementptr inbounds i8, ptr %3, i64 48
  %21 = getelementptr inbounds i8, ptr %3, i64 8
  br label %22

22:                                               ; preds = %.lr.ph, %37
  %.020 = phi i64 [ %19, %.lr.ph ], [ %38, %37 ]
  %23 = load ptr, ptr %20, align 8
  %24 = load ptr, ptr %4, align 8
  %25 = load i32, ptr %21, align 8
  %26 = sext i32 %25 to i64
  %27 = mul nsw i64 %.020, %26
  %28 = getelementptr inbounds float, ptr %24, i64 %27
  %29 = load ptr, ptr %5, align 8
  %30 = getelementptr inbounds float, ptr %29, i64 %27
  %31 = load ptr, ptr %6, align 8
  %32 = getelementptr inbounds i64, ptr %31, i64 %.020
  %33 = load i64, ptr %32, align 8
  %spec.select = call i64 @llvm.smax.i64(i64 %33, i64 0)
  %34 = load ptr, ptr %23, align 8
  %35 = getelementptr inbounds i8, ptr %34, i64 112
  %36 = load ptr, ptr %35, align 8
  invoke void %36(ptr noundef nonnull align 8 dereferenceable(36) %23, ptr noundef %28, ptr noundef %30, i64 noundef %spec.select)
          to label %37 unwind label %41

37:                                               ; preds = %22
  %38 = add nsw i64 %.020, 1
  %39 = load i64, ptr %9, align 8
  %.not.not = icmp slt i64 %.020, %39
  br i1 %.not.not, label %22, label %._crit_edge

._crit_edge:                                      ; preds = %37, %14
  call void @__kmpc_for_static_fini(ptr nonnull @1, i32 %16)
  br label %40

40:                                               ; preds = %._crit_edge, %7
  ret void

41:                                               ; preds = %22
  %42 = landingpad { ptr, i32 }
          catch ptr null
  %43 = extractvalue { ptr, i32 } %42, 0
  call void @__clang_call_terminate(ptr %43) #26
  unreachable
}